; Function Attrs: nounwind uwtable
define internal fastcc range(i32 -5, 1) i32 @reg_callout_list_entry(ptr %.72.val, ptr noundef nonnull writeonly captures(none) %0) unnamed_addr #2 {
  %2 = tail call ptr @onig_get_regex_ext(ptr noundef %.72.val) #25
  %3 = icmp eq ptr %2, null
  br i1 %3, label %.critedge, label %4

4:                                                ; preds = %1
  %5 = getelementptr inbounds nuw i8, ptr %2, i64 32
  %6 = load ptr, ptr %5, align 8, !tbaa !92
  %7 = icmp eq ptr %6, null
  br i1 %7, label %8, label %12

8:                                                ; preds = %4
  %9 = tail call noalias dereferenceable_or_null(432) ptr @malloc(i64 noundef 432) #26
  %10 = icmp eq ptr %9, null
  br i1 %10, label %.critedge, label %.thread

.thread:                                          ; preds = %8
  store ptr %9, ptr %5, align 8, !tbaa !92
  %11 = getelementptr inbounds nuw i8, ptr %2, i64 28
  store i32 3, ptr %11, align 4, !tbaa !279
  br label %21

12:                                               ; preds = %4
  %.phi.trans.insert = getelementptr inbounds nuw i8, ptr %2, i64 24
  %.pre = load i32, ptr %.phi.trans.insert, align 8, !tbaa !90
  %.phi.trans.insert1 = getelementptr inbounds nuw i8, ptr %2, i64 28
  %.pre2 = load i32, ptr %.phi.trans.insert1, align 4, !tbaa !279
  %13 = add nsw i32 %.pre, 1
  %14 = getelementptr inbounds nuw i8, ptr %2, i64 28
  %.not = icmp slt i32 %.pre, %.pre2
  br i1 %.not, label %21, label %15

15:                                               ; preds = %12
  %16 = shl nsw i32 %.pre2, 1
  %17 = sext i32 %16 to i64
  %18 = mul nsw i64 %17, 144
  %19 = tail call ptr @realloc(ptr noundef nonnull %6, i64 noundef %18) #27
  %.not41 = icmp eq ptr %19, null
  br i1 %.not41, label %.critedge, label %20

20:                                               ; preds = %15
  store ptr %19, ptr %5, align 8, !tbaa !92
  store i32 %16, ptr %14, align 4, !tbaa !279
  br label %21

21:                                               ; preds = %.thread, %20, %12
  %22 = phi i32 [ %13, %20 ], [ %13, %12 ], [ 1, %.thread ]
  %23 = phi i32 [ %.pre, %20 ], [ %.pre, %12 ], [ 0, %.thread ]
  %24 = phi ptr [ %19, %20 ], [ %6, %12 ], [ %9, %.thread ]
  %25 = getelementptr inbounds nuw i8, ptr %2, i64 24
  %26 = sext i32 %23 to i64
  %27 = getelementptr inbounds %struct.CalloutListEntry, ptr %24, i64 %26
  store i32 0, ptr %27, align 8, !tbaa !99
  %28 = getelementptr inbounds nuw i8, ptr %27, i64 4
  store i32 0, ptr %28, align 4, !tbaa !116
  %29 = getelementptr inbounds nuw i8, ptr %27, i64 8
  store i32 0, ptr %29, align 8, !tbaa !269
  %30 = getelementptr inbounds nuw i8, ptr %27, i64 16
  %31 = getelementptr inbounds nuw i8, ptr %27, i64 40
  tail call void @llvm.memset.p0.i64(ptr noundef nonnull align 8 dereferenceable(20) %30, i8 0, i64 20, i1 false)
  tail call void @llvm.memset.p0.i64(ptr noundef nonnull align 8 dereferenceable(24) %31, i8 0, i64 24, i1 false)
  store i32 %22, ptr %25, align 8, !tbaa !90
  store i32 %22, ptr %0, align 4, !tbaa !8
  br label %.critedge

.critedge:                                        ; preds = %15, %8, %1, %21
  %.0 = phi i32 [ 0, %21 ], [ -5, %1 ], [ -5, %8 ], [ -5, %15 ]
  ret i32 %.0
}